TN:
SF:/home/jelena/Desktop/faks/vs/07-GuessMyDrawing-master/07-GuessMyDrawing/Application/client.cpp
FN:115,118,_ZN6Client16connectedMessageEv
FN:120,123,_ZN6Client19disconnectedMessageEv
FN:125,130,_ZN6Client5errorEN15QAbstractSocket11SocketErrorE
FN:132,219,_ZN6Client12jsonReceivedERK11QJsonObject
FN:222,227,_ZN6Client11sendMessageE11QJsonObject
FN:23,27,_ZN6ClientD0Ev
FN:23,27,_ZN6ClientD2Ev
FN:29,34,_ZN6Client15connectToServerERK12QHostAddresst
FN:36,39,_ZN6Client18disconnectFromHostEv
FN:41,44,_ZN6Client4sendERK7QString
FN:46,50,_ZN6Client8joinRoomE7QStringS0_
FN:5,21,_ZN6ClientC2E7QStringP7QObject
FN:52,56,_ZN6Client10createRoomE7QStringS0_i
FN:58,63,_ZN6Client9leaveRoomEv
FN:66,69,_ZN6Client10chooseWordE7QString
FN:71,74,_ZN6Client8getRoomsEv
FN:76,79,_ZN6Client10sendCanvasER7QString
FN:81,84,_ZN6Client9reconnectEv
FN:87,113,_ZN6Client16MessageReadyReadEv
FNDA:14,_ZN6Client16connectedMessageEv
FNDA:14,_ZN6Client19disconnectedMessageEv
FNDA:3,_ZN6Client5errorEN15QAbstractSocket11SocketErrorE
FNDA:14,_ZN6Client12jsonReceivedERK11QJsonObject
FNDA:8,_ZN6Client11sendMessageE11QJsonObject
FNDA:0,_ZN6ClientD0Ev
FNDA:23,_ZN6ClientD2Ev
FNDA:18,_ZN6Client15connectToServerERK12QHostAddresst
FNDA:1,_ZN6Client18disconnectFromHostEv
FNDA:2,_ZN6Client4sendERK7QString
FNDA:0,_ZN6Client8joinRoomE7QStringS0_
FNDA:23,_ZN6ClientC2E7QStringP7QObject
FNDA:2,_ZN6Client10createRoomE7QStringS0_i
FNDA:1,_ZN6Client9leaveRoomEv
FNDA:1,_ZN6Client10chooseWordE7QString
FNDA:1,_ZN6Client8getRoomsEv
FNDA:1,_ZN6Client10sendCanvasER7QString
FNDA:1,_ZN6Client9reconnectEv
FNDA:13,_ZN6Client16MessageReadyReadEv
FNF:19
FNH:17
DA:5,23
DA:7,23
DA:8,23
DA:9,23
DA:10,46
DA:13,23
DA:14,23
DA:18,23
DA:20,23
DA:21,23
DA:23,23
DA:25,23
DA:26,23
DA:27,23
DA:29,18
DA:31,18
DA:32,18
DA:33,18
DA:34,18
DA:36,1
DA:38,1
DA:39,1
DA:41,2
DA:43,2
DA:44,2
DA:46,0
DA:48,0
DA:49,0
DA:50,0
DA:52,2
DA:54,2
DA:55,2
DA:56,2
DA:58,1
DA:60,1
DA:61,1
DA:62,1
DA:63,1
DA:66,1
DA:68,1
DA:69,1
DA:71,1
DA:73,1
DA:74,1
DA:76,1
DA:78,1
DA:79,1
DA:81,1
DA:83,1
DA:84,1
DA:87,13
DA:89,13
DA:90,13
DA:92,13
DA:94,41
DA:96,28
DA:97,13
DA:98,15
DA:101,15
DA:102,15
DA:104,14
DA:105,14
DA:107,0
DA:110,1
DA:112,15
DA:113,13
DA:115,14
DA:117,14
DA:118,14
DA:120,14
DA:122,14
DA:123,14
DA:125,3
DA:129,3
DA:130,3
DA:132,14
DA:134,14
DA:135,14
DA:137,14
DA:138,1
DA:139,1
DA:140,0
DA:141,0
DA:143,1
DA:144,1
DA:147,1
DA:148,1
DA:149,0
DA:150,0
DA:152,1
DA:153,1
DA:156,1
DA:157,1
DA:158,0
DA:159,0
DA:161,1
DA:162,1
DA:165,1
DA:166,1
DA:167,3
DA:168,2
DA:170,1
DA:171,1
DA:174,2
DA:175,2
DA:176,2
DA:177,0
DA:178,2
DA:179,2
DA:182,3
DA:183,3
DA:184,3
DA:185,3
DA:188,1
DA:189,1
DA:190,1
DA:191,1
DA:194,2
DA:195,2
DA:196,1
DA:197,1
DA:199,2
DA:200,2
DA:203,1
DA:204,1
DA:205,0
DA:206,0
DA:209,1
DA:210,1
DA:213,1
DA:214,1
DA:219,14
DA:222,8
DA:224,8
DA:225,8
DA:226,8
DA:227,8
LF:137
LH:123
end_of_record
TN:
SF:/home/jelena/Desktop/faks/vs/07-GuessMyDrawing-master/07-GuessMyDrawing/Application/messageparser.cpp
FN:166,169,_ZN13MessageParser12isFieldValidERK10QJsonValue
FN:20,27,_ZN13MessageParser15joinRoomMessageER7QStringS1_
FN:29,37,_ZN13MessageParser17createRoomMessageER7QStringS1_i
FN:39,44,_ZN13MessageParser16leaveRoomMessageEv
FN:4,7,_ZN13MessageParserC2Ev
FN:46,52,_ZN13MessageParser17chooseWordMessageER7QString
FN:54,59,_ZN13MessageParser15getRoomsMessageEv
FN:61,68,_ZN13MessageParser13canvasMessageER7QString
FN:70,164,_ZN13MessageParser20parseReceivedMessageERK11QJsonObjectR7QVectorI7QStringE
FN:9,18,_ZN13MessageParser11textMessageERK7QStringS2_
FNDA:22,_ZN13MessageParser12isFieldValidERK10QJsonValue
FNDA:0,_ZN13MessageParser15joinRoomMessageER7QStringS1_
FNDA:2,_ZN13MessageParser17createRoomMessageER7QStringS1_i
FNDA:1,_ZN13MessageParser16leaveRoomMessageEv
FNDA:23,_ZN13MessageParserC2Ev
FNDA:1,_ZN13MessageParser17chooseWordMessageER7QString
FNDA:1,_ZN13MessageParser15getRoomsMessageEv
FNDA:1,_ZN13MessageParser13canvasMessageER7QString
FNDA:14,_ZN13MessageParser20parseReceivedMessageERK11QJsonObjectR7QVectorI7QStringE
FNDA:2,_ZN13MessageParser11textMessageERK7QStringS2_
FNF:10
FNH:9
DA:4,23
DA:7,23
DA:9,2
DA:11,2
DA:12,2
DA:13,0
DA:14,2
DA:15,2
DA:16,2
DA:17,2
DA:18,0
DA:20,0
DA:22,0
DA:23,0
DA:24,0
DA:25,0
DA:26,0
DA:27,0
DA:29,2
DA:31,2
DA:32,2
DA:33,2
DA:34,2
DA:35,2
DA:36,2
DA:37,0
DA:39,1
DA:41,1
DA:42,1
DA:43,1
DA:44,0
DA:46,1
DA:48,1
DA:49,1
DA:50,1
DA:51,1
DA:52,0
DA:54,1
DA:56,1
DA:57,1
DA:58,1
DA:59,0
DA:61,1
DA:63,1
DA:64,1
DA:66,1
DA:67,1
DA:68,0
DA:70,14
DA:72,14
DA:73,14
DA:74,0
DA:75,0
DA:81,14
DA:82,1
DA:83,1
DA:84,0
DA:85,0
DA:87,1
DA:88,1
DA:89,0
DA:90,0
DA:92,1
DA:93,1
DA:94,1
DA:95,1
DA:97,13
DA:98,1
DA:99,1
DA:100,0
DA:101,0
DA:103,1
DA:104,1
DA:105,1
DA:107,12
DA:108,1
DA:109,1
DA:110,0
DA:111,0
DA:113,1
DA:114,1
DA:115,1
DA:117,11
DA:118,2
DA:119,2
DA:120,0
DA:122,2
DA:123,2
DA:124,9
DA:125,1
DA:126,1
DA:127,0
DA:128,0
DA:131,1
DA:132,3
DA:133,2
DA:134,2
DA:136,1
DA:137,1
DA:139,8
DA:140,3
DA:143,5
DA:144,1
DA:147,4
DA:148,2
DA:150,2
DA:151,1
DA:152,1
DA:153,0
DA:154,0
DA:158,1
DA:159,1
DA:160,1
DA:162,1
DA:163,1
DA:164,14
DA:166,22
DA:168,22
LF:118
LH:89
end_of_record
TN:
SF:/home/jelena/Desktop/faks/vs/07-GuessMyDrawing-master/07-GuessMyDrawing/Server/room.cpp
FN:118,123,_ZN4Room8gameOverEP6Thread
FN:126,170,_ZN4Room10joinClientE7QStringP6Thread
FN:13,18,_ZN4RoomD2Ev
FN:172,184,_ZN4Room5startEv
FN:186,197,_ZN4Room16broadcastMessageERK11QJsonObjectP6Thread
FN:199,205,_ZN4Room15broadcastCanvasERK11QJsonObjectP6Thread
FN:20,23,_ZN4Room11setDurationEi
FN:25,59,_ZN4Room9leaveRoomEP6Thread
FN:62,69,_ZN4Room15usernameIsTakenE7QString
FN:7,11,_ZN4RoomC2E7QStringS0_i
FN:71,77,_ZN4Room19setWordAndStartGameERK7QString
FN:79,94,_ZN4Room13checkChatWordE7QStringP6Thread
FN:97,116,_ZN4Room16chooseRandomHostEv
FNDA:9,_ZN4Room8gameOverEP6Thread
FNDA:9,_ZN4Room10joinClientE7QStringP6Thread
FNDA:7,_ZN4RoomD2Ev
FNDA:4,_ZN4Room5startEv
FNDA:28,_ZN4Room16broadcastMessageERK11QJsonObjectP6Thread
FNDA:1,_ZN4Room15broadcastCanvasERK11QJsonObjectP6Thread
FNDA:1,_ZN4Room11setDurationEi
FNDA:9,_ZN4Room9leaveRoomEP6Thread
FNDA:9,_ZN4Room15usernameIsTakenE7QString
FNDA:7,_ZN4RoomC2E7QStringS0_i
FNDA:1,_ZN4Room19setWordAndStartGameERK7QString
FNDA:1,_ZN4Room13checkChatWordE7QStringP6Thread
FNDA:8,_ZN4Room16chooseRandomHostEv
FNF:13
FNH:13
DA:7,7
DA:9,7
DA:10,7
DA:11,7
DA:13,7
DA:15,7
DA:16,7
DA:17,7
DA:18,7
DA:20,1
DA:22,1
DA:23,1
DA:25,9
DA:28,9
DA:30,11
DA:31,10
DA:33,9
DA:36,9
DA:37,9
DA:38,9
DA:40,9
DA:41,9
DA:45,9
DA:46,8
DA:47,8
DA:48,8
DA:52,1
DA:53,1
DA:56,1
DA:57,1
DA:58,1
DA:59,9
DA:62,9
DA:64,9
DA:65,0
DA:68,9
DA:71,1
DA:74,1
DA:75,1
DA:76,1
DA:77,1
DA:79,1
DA:81,1
DA:82,0
DA:83,0
DA:84,0
DA:85,0
DA:86,0
DA:88,0
DA:90,0
DA:91,0
DA:92,0
DA:94,1
DA:97,8
DA:100,8
DA:101,8
DA:102,6
DA:103,6
DA:105,2
DA:106,2
DA:107,2
DA:108,2
DA:109,2
DA:110,2
DA:111,2
DA:112,2
DA:113,2
DA:114,0
DA:118,9
DA:120,9
DA:121,9
DA:122,9
DA:123,9
DA:126,9
DA:128,9
DA:130,9
DA:132,9
DA:133,0
DA:134,0
DA:136,0
DA:137,0
DA:138,0
DA:143,9
DA:144,9
DA:147,9
DA:148,9
DA:149,9
DA:152,9
DA:153,0
DA:154,0
DA:155,0
DA:158,9
DA:159,6
DA:160,6
DA:161,6
DA:162,6
DA:165,9
DA:166,3
DA:168,9
DA:169,9
DA:170,9
DA:172,4
DA:174,4
DA:176,4
DA:177,12
DA:178,8
DA:179,8
DA:182,4
DA:184,4
DA:186,28
DA:187,39
DA:188,11
DA:191,28
DA:192,28
DA:194,28
DA:195,1
DA:197,28
DA:199,1
DA:200,5
DA:201,2
DA:202,1
DA:205,1
LF:122
LH:103
end_of_record
TN:
SF:/home/jelena/Desktop/faks/vs/07-GuessMyDrawing-master/07-GuessMyDrawing/Server/room.h
FN:48,48,_ZN4Room7getWordEv
FNDA:1,_ZN4Room7getWordEv
FNF:1
FNH:1
DA:48,1
LF:1
LH:1
end_of_record
TN:
SF:/home/jelena/Desktop/faks/vs/07-GuessMyDrawing-master/07-GuessMyDrawing/Server/server.cpp
FN:105,112,_ZN6Server17getRoomFromThreadEP6Thread
FN:114,121,_ZN6Server16broadcastMessageERK11QJsonObjectP6Thread
FN:123,127,_ZN6Server10createRoomERK7QStringS2_i
FN:129,139,_ZN6Server8joinRoomERK7QStringS2_P6Thread
FN:141,149,_ZN6Server9leaveRoomEP6Thread
FN:151,158,_ZN6Server10chooseWordERK7QStringP6Thread
FN:16,22,_ZN6Server18incomingConnectionEx
FN:160,168,_ZN6Server8getRoomsEv
FN:170,177,_ZN6Server15broadcastCanvasERK11QJsonObjectP6Thread
FN:179,185,_ZN6ServerD0Ev
FN:179,185,_ZN6ServerD2Ev
FN:25,103,_ZN6Server12parseMessageERK11QJsonObjectP6Thread
FN:4,6,_ZN6ServerC2EP7QObject
FN:8,14,_ZN6Server11startServerEv
FNDA:12,_ZN6Server17getRoomFromThreadEP6Thread
FNDA:1,_ZN6Server16broadcastMessageERK11QJsonObjectP6Thread
FNDA:6,_ZN6Server10createRoomERK7QStringS2_i
FNDA:9,_ZN6Server8joinRoomERK7QStringS2_P6Thread
FNDA:9,_ZN6Server9leaveRoomEP6Thread
FNDA:1,_ZN6Server10chooseWordERK7QStringP6Thread
FNDA:11,_ZN6Server18incomingConnectionEx
FNDA:1,_ZN6Server8getRoomsEv
FNDA:1,_ZN6Server15broadcastCanvasERK11QJsonObjectP6Thread
FNDA:0,_ZN6ServerD0Ev
FNDA:10,_ZN6ServerD2Ev
FNDA:23,_ZN6Server12parseMessageERK11QJsonObjectP6Thread
FNDA:10,_ZN6ServerC2EP7QObject
FNDA:10,_ZN6Server11startServerEv
FNF:14
FNH:13
DA:4,10
DA:6,10
DA:8,10
DA:9,10
DA:10,1
DA:12,9
DA:14,10
DA:16,11
DA:17,11
DA:18,11
DA:19,11
DA:20,11
DA:21,11
DA:22,11
DA:25,23
DA:26,23
DA:28,23
DA:29,1
DA:30,1
DA:32,1
DA:33,0
DA:34,0
DA:35,0
DA:36,0
DA:37,0
DA:38,1
DA:40,6
DA:41,6
DA:42,6
DA:43,6
DA:45,6
DA:46,0
DA:47,0
DA:48,0
DA:49,6
DA:50,6
DA:51,3
DA:52,3
DA:53,3
DA:55,3
DA:56,0
DA:57,0
DA:58,0
DA:59,3
DA:60,3
DA:61,9
DA:62,9
DA:64,9
DA:65,0
DA:66,0
DA:67,0
DA:68,9
DA:70,1
DA:71,1
DA:72,1
DA:74,1
DA:75,0
DA:76,0
DA:77,0
DA:78,1
DA:79,1
DA:80,1
DA:81,1
DA:82,1
DA:83,1
DA:84,1
DA:85,1
DA:86,1
DA:87,1
DA:89,1
DA:90,0
DA:91,0
DA:92,0
DA:93,0
DA:94,0
DA:95,1
DA:97,1
DA:98,1
DA:99,1
DA:100,1
DA:105,12
DA:106,12
DA:107,12
DA:108,0
DA:110,12
DA:111,12
DA:112,12
DA:114,1
DA:115,1
DA:116,1
DA:117,0
DA:118,0
DA:120,1
DA:123,6
DA:124,6
DA:125,6
DA:126,6
DA:127,6
DA:129,9
DA:131,9
DA:132,9
DA:134,0
DA:137,9
DA:138,9
DA:139,9
DA:141,9
DA:142,9
DA:144,9
DA:145,0
DA:147,9
DA:148,9
DA:149,9
DA:151,1
DA:152,1
DA:153,1
DA:154,0
DA:156,1
DA:157,1
DA:158,1
DA:160,1
DA:161,1
DA:162,3
DA:163,1
DA:164,1
DA:166,1
DA:167,1
DA:168,0
DA:170,1
DA:171,1
DA:172,1
DA:173,0
DA:174,0
DA:176,1
DA:179,10
DA:180,10
DA:181,10
DA:182,10
DA:183,10
DA:184,10
DA:185,10
LF:140
LH:109
end_of_record
TN:
SF:/home/jelena/Desktop/faks/vs/07-GuessMyDrawing-master/07-GuessMyDrawing/Server/servermainwindow.cpp
FN:11,14,_ZN10MainWindowD0Ev
FN:11,14,_ZN10MainWindowD2Ev
FN:4,9,_ZN10MainWindowC2EP7QWidget
FNDA:0,_ZN10MainWindowD0Ev
FNDA:0,_ZN10MainWindowD2Ev
FNDA:0,_ZN10MainWindowC2EP7QWidget
FNF:3
FNH:0
DA:4,0
DA:6,0
DA:8,0
DA:9,0
DA:11,0
DA:13,0
DA:14,0
LF:7
LH:0
end_of_record
TN:
SF:/home/jelena/Desktop/faks/vs/07-GuessMyDrawing-master/07-GuessMyDrawing/Server/servermessageparser.cpp
FN:108,113,_ZN19ServerMessageParser21fromChooseWordMessageERK11QJsonObject
FN:115,124,_ZN19ServerMessageParser21fromCreateRoomMessageERK11QJsonObject
FN:17,24,_ZN19ServerMessageParser19toUserJoinedMessageER7QString
FN:26,33,_ZN19ServerMessageParser17toJoinRoomMessageER7QString
FN:35,41,_ZN19ServerMessageParser17toGameOverMessageEv
FN:4,7,_ZN19ServerMessageParserC2Ev
FN:43,49,_ZN19ServerMessageParser16toNewHostMessageEv
FN:51,58,_ZN19ServerMessageParser17toUserLeftMessageE7QString
FN:60,65,_ZN19ServerMessageParser17toGetRoomsMessageERK7QString
FN:67,97,_ZN19ServerMessageParser18getTypeFromMessageERK11QJsonObject
FN:9,15,_ZN19ServerMessageParser14toStartMessageEv
FN:99,106,_ZN19ServerMessageParser19fromJoinRoomMessageERK11QJsonObject
FNDA:1,_ZN19ServerMessageParser21fromChooseWordMessageERK11QJsonObject
FNDA:6,_ZN19ServerMessageParser21fromCreateRoomMessageERK11QJsonObject
FNDA:9,_ZN19ServerMessageParser19toUserJoinedMessageER7QString
FNDA:9,_ZN19ServerMessageParser17toJoinRoomMessageER7QString
FNDA:9,_ZN19ServerMessageParser17toGameOverMessageEv
FNDA:17,_ZN19ServerMessageParserC2Ev
FNDA:9,_ZN19ServerMessageParser16toNewHostMessageEv
FNDA:9,_ZN19ServerMessageParser17toUserLeftMessageE7QString
FNDA:1,_ZN19ServerMessageParser17toGetRoomsMessageERK7QString
FNDA:23,_ZN19ServerMessageParser18getTypeFromMessageERK11QJsonObject
FNDA:4,_ZN19ServerMessageParser14toStartMessageEv
FNDA:3,_ZN19ServerMessageParser19fromJoinRoomMessageERK11QJsonObject
FNF:12
FNH:12
DA:4,17
DA:7,17
DA:9,4
DA:11,4
DA:12,4
DA:14,4
DA:15,0
DA:17,9
DA:19,9
DA:20,9
DA:21,9
DA:23,9
DA:24,0
DA:26,9
DA:28,9
DA:29,9
DA:30,9
DA:32,9
DA:33,0
DA:35,9
DA:37,9
DA:38,9
DA:40,9
DA:41,0
DA:43,9
DA:45,9
DA:46,9
DA:48,9
DA:49,0
DA:51,9
DA:53,9
DA:54,9
DA:55,9
DA:57,9
DA:58,0
DA:60,1
DA:61,1
DA:62,1
DA:63,1
DA:64,1
DA:65,0
DA:67,23
DA:68,23
DA:69,23
DA:70,1
DA:73,22
DA:74,6
DA:77,16
DA:78,3
DA:81,13
DA:82,9
DA:85,4
DA:86,1
DA:89,3
DA:90,1
DA:93,2
DA:94,1
DA:96,1
DA:97,23
DA:99,3
DA:100,3
DA:101,3
DA:102,3
DA:103,3
DA:104,3
DA:105,6
DA:106,3
DA:108,1
DA:109,1
DA:110,1
DA:111,1
DA:112,2
DA:113,1
DA:115,6
DA:116,6
DA:117,6
DA:118,6
DA:119,6
DA:120,6
DA:121,6
DA:122,6
DA:123,12
DA:124,6
LF:83
LH:76
end_of_record
TN:
SF:/home/jelena/Desktop/faks/vs/07-GuessMyDrawing-master/07-GuessMyDrawing/Server/thread.cpp
FN:20,22,_ZN6Thread10disconnectEv
FN:24,26,_ZN6ThreadD0Ev
FN:24,26,_ZN6ThreadD2Ev
FN:28,33,_ZN6Thread4sendE11QJsonObject
FN:35,39,_ZN6Thread18onMessageReadyReadEv
FN:41,44,_ZN6Thread21onDisconnectedMessageEv
FN:46,48,_ZN6Thread19getSocketDescriptorEv
FN:5,18,_ZN6ThreadC2ExP7QObject
FN:50,52,_ZN6Thread11setRoomNameE7QString
FN:54,56,_ZN6Thread11getRoomNameEv
FNDA:1,_ZN6Thread10disconnectEv
FNDA:11,_ZN6ThreadD0Ev
FNDA:14,_ZN6ThreadD2Ev
FNDA:39,_ZN6Thread4sendE11QJsonObject
FNDA:23,_ZN6Thread18onMessageReadyReadEv
FNDA:1,_ZN6Thread21onDisconnectedMessageEv
FNDA:1,_ZN6Thread19getSocketDescriptorEv
FNDA:14,_ZN6ThreadC2ExP7QObject
FNDA:18,_ZN6Thread11setRoomNameE7QString
FNDA:12,_ZN6Thread11getRoomNameEv
FNF:10
FNH:10
DA:5,14
DA:7,14
DA:8,14
DA:9,14
DA:10,3
DA:11,3
DA:13,11
DA:14,11
DA:16,11
DA:17,11
DA:18,0
DA:20,1
DA:21,1
DA:22,1
DA:24,25
DA:25,14
DA:26,25
DA:28,39
DA:30,39
DA:31,39
DA:32,39
DA:33,39
DA:35,23
DA:36,23
DA:37,23
DA:38,23
DA:39,23
DA:41,1
DA:42,1
DA:43,1
DA:44,1
DA:46,1
DA:47,1
DA:50,18
DA:51,18
DA:52,18
DA:54,12
DA:55,12
LF:38
LH:37
end_of_record
